target datalayout = "e-m:e-p270:32:32-p271:32:32-p272:64:64-i64:64-i128:128-f80:128-n8:16:32:64-S128"
target triple = "x86_64-pc-linux-gnu"

%struct._object = type { %union.anon, ptr }
%union.anon = type { i64 }
%struct.PyType_Slot = type { i32, ptr }
%struct.anon = type { i32, i32 }
%struct.PyType_Spec = type { ptr, i32, i32, i32, ptr }

@.str.41 = private unnamed_addr constant [40 x i8] c"../cpython/Modules/_testcapi/heaptype.c\00", align 1
@PyExc_AssertionError = external global ptr, align 8
@.str.70 = private unnamed_addr constant [3 x i8] c"sO\00", align 1
@create_type_with_token.spec = internal global { ptr, i32, i32, i32, [4 x i8], ptr } { ptr @.str.71, i32 0, i32 0, i32 1024, [4 x i8] zeroinitializer, ptr @create_type_with_token.slots }, align 8
@.str.72 = private unnamed_addr constant [18 x i8] c"!PyErr_Occurred()\00", align 1
@__PRETTY_FUNCTION__.create_type_with_token = private unnamed_addr constant [57 x i8] c"PyObject *create_type_with_token(PyObject *, PyObject *)\00", align 1
@.str.73 = private unnamed_addr constant [44 x i8] c"failed to convert token from Py_TP_USE_SPEC\00", align 1

; Function Attrs: alwaysinline nounwind uwtable
define internal i32 @_Py_IsImmortal(ptr noundef %0) #3 {
  %2 = alloca ptr, align 8
  store ptr %0, ptr %2, align 8, !tbaa !3
  %3 = load ptr, ptr %2, align 8, !tbaa !3
  %4 = getelementptr inbounds nuw %struct._object, ptr %3, i32 0, i32 0
  %5 = getelementptr inbounds nuw %struct.anon, ptr %4, i32 0, i32 0
  %6 = load i32, ptr %5, align 8, !tbaa !12
  %7 = icmp slt i32 %6, 0
  %8 = zext i1 %7 to i32
  ret i32 %8
}

; Function Attrs: alwaysinline nounwind uwtable
define internal void @Py_DECREF(ptr noundef %0) #3 {
  %2 = alloca ptr, align 8
  store ptr %0, ptr %2, align 8, !tbaa !3
  %3 = load ptr, ptr %2, align 8, !tbaa !3
  %4 = call i32 @_Py_IsImmortal(ptr noundef %3)
  %5 = icmp ne i32 %4, 0
  br i1 %5, label %6, label %7

6:                                                ; preds = %1
  br label %16

7:                                                ; preds = %1
  %8 = load ptr, ptr %2, align 8, !tbaa !3
  %9 = getelementptr inbounds nuw %struct._object, ptr %8, i32 0, i32 0
  %10 = getelementptr inbounds nuw %struct.anon, ptr %9, i32 0, i32 0
  %11 = load i32, ptr %10, align 8, !tbaa !12
  %12 = add i32 %11, -1
  store i32 %12, ptr %10, align 8, !tbaa !12
  %13 = icmp eq i32 %12, 0
  br i1 %13, label %14, label %16

14:                                               ; preds = %7
  %15 = load ptr, ptr %2, align 8, !tbaa !3
  call void @_Py_Dealloc(ptr noundef %15)
  br label %16

16:                                               ; preds = %6, %14, %7
  ret void
}

; Function Attrs: nounwind uwtable
define internal ptr @create_type_with_token(ptr noundef %0, ptr noundef %1) #0 {
  %3 = alloca ptr, align 8
  %4 = alloca ptr, align 8
  %5 = alloca ptr, align 8
  %6 = alloca ptr, align 8
  %7 = alloca ptr, align 8
  %8 = alloca i32, align 4
  %9 = alloca ptr, align 8
  %10 = alloca ptr, align 8
  %11 = alloca [2 x %struct.PyType_Slot], align 16
  %12 = alloca %struct.PyType_Spec, align 8
  store ptr %0, ptr %4, align 8, !tbaa !3
  store ptr %1, ptr %5, align 8, !tbaa !3
  call void @llvm.lifetime.start.p0(i64 8, ptr %6) #9
  call void @llvm.lifetime.start.p0(i64 8, ptr %7) #9
  %13 = load ptr, ptr %5, align 8, !tbaa !3
  %14 = call i32 (ptr, ptr, ...) @PyArg_ParseTuple(ptr noundef %13, ptr noundef @.str.70, ptr noundef %6, ptr noundef %7)
  %15 = icmp ne i32 %14, 0
  br i1 %15, label %17, label %16

16:                                               ; preds = %2
  store ptr null, ptr %3, align 8
  store i32 1, ptr %8, align 4
  br label %65

17:                                               ; preds = %2
  call void @llvm.lifetime.start.p0(i64 8, ptr %9) #9
  %18 = load ptr, ptr %7, align 8, !tbaa !3
  %19 = call ptr @PyLong_AsVoidPtr(ptr noundef %18)
  store ptr %19, ptr %9, align 8, !tbaa !20
  %20 = load ptr, ptr %9, align 8, !tbaa !20
  %21 = icmp eq ptr %20, null
  br i1 %21, label %22, label %45

22:                                               ; preds = %17
  call void @llvm.lifetime.start.p0(i64 8, ptr %10) #9
  %23 = call ptr @PyType_FromMetaclass(ptr noundef null, ptr noundef null, ptr noundef @create_type_with_token.spec, ptr noundef null)
  store ptr %23, ptr %10, align 8, !tbaa !3
  %24 = load ptr, ptr %10, align 8, !tbaa !3
  %25 = icmp ne ptr %24, null
  br i1 %25, label %27, label %26

26:                                               ; preds = %22
  store ptr null, ptr %3, align 8
  store i32 1, ptr %8, align 4
  br label %42

27:                                               ; preds = %22
  %28 = load ptr, ptr %10, align 8, !tbaa !3
  %29 = call ptr @PyType_GetSlot(ptr noundef %28, i32 noundef 83)
  store ptr %29, ptr %9, align 8, !tbaa !20
  %30 = call ptr @PyErr_Occurred()
  %31 = icmp ne ptr %30, null
  br i1 %31, label %33, label %32

32:                                               ; preds = %27
  br label %35

33:                                               ; preds = %27
  call void @__assert_fail(ptr noundef @.str.72, ptr noundef @.str.41, i32 noundef 438, ptr noundef @__PRETTY_FUNCTION__.create_type_with_token) #11
  unreachable

34:                                               ; No predecessors!
  br label %35

35:                                               ; preds = %34, %32
  %36 = load ptr, ptr %10, align 8, !tbaa !3
  call void @Py_DECREF(ptr noundef %36)
  %37 = load ptr, ptr %9, align 8, !tbaa !20
  %38 = icmp ne ptr %37, @create_type_with_token.spec
  br i1 %38, label %39, label %41

39:                                               ; preds = %35
  %40 = load ptr, ptr @PyExc_AssertionError, align 8, !tbaa !3
  call void @PyErr_SetString(ptr noundef %40, ptr noundef @.str.73)
  store ptr null, ptr %3, align 8
  store i32 1, ptr %8, align 4
  br label %42

41:                                               ; preds = %35
  store i32 0, ptr %8, align 4
  br label %42

42:                                               ; preds = %41, %39, %26
  call void @llvm.lifetime.end.p0(i64 8, ptr %10) #9
  %43 = load i32, ptr %8, align 4
  switch i32 %43, label %64 [
    i32 0, label %44
  ]

44:                                               ; preds = %42
  br label %45

45:                                               ; preds = %44, %17
  call void @llvm.lifetime.start.p0(i64 32, ptr %11) #9
  %46 = getelementptr inbounds nuw %struct.PyType_Slot, ptr %11, i32 0, i32 0
  store i32 83, ptr %46, align 16, !tbaa !22
  %47 = getelementptr i8, ptr %11, i64 4
  call void @llvm.memset.p0.i64(ptr align 4 %47, i8 0, i64 4, i1 false)
  %48 = getelementptr inbounds nuw %struct.PyType_Slot, ptr %11, i32 0, i32 1
  %49 = load ptr, ptr %9, align 8, !tbaa !20
  store ptr %49, ptr %48, align 8, !tbaa !24
  %50 = getelementptr inbounds %struct.PyType_Slot, ptr %11, i64 1
  %51 = getelementptr inbounds nuw %struct.PyType_Slot, ptr %50, i32 0, i32 0
  store i32 0, ptr %51, align 16, !tbaa !22
  %52 = getelementptr i8, ptr %50, i64 4
  call void @llvm.memset.p0.i64(ptr align 4 %52, i8 0, i64 4, i1 false)
  %53 = getelementptr inbounds nuw %struct.PyType_Slot, ptr %50, i32 0, i32 1
  store ptr null, ptr %53, align 8, !tbaa !24
  call void @llvm.lifetime.start.p0(i64 32, ptr %12) #9
  %54 = getelementptr inbounds nuw %struct.PyType_Spec, ptr %12, i32 0, i32 0
  %55 = load ptr, ptr %6, align 8, !tbaa !21
  store ptr %55, ptr %54, align 8, !tbaa !13
  %56 = getelementptr inbounds nuw %struct.PyType_Spec, ptr %12, i32 0, i32 1
  store i32 0, ptr %56, align 8, !tbaa !16
  %57 = getelementptr inbounds nuw %struct.PyType_Spec, ptr %12, i32 0, i32 2
  store i32 0, ptr %57, align 4, !tbaa !17
  %58 = getelementptr inbounds nuw %struct.PyType_Spec, ptr %12, i32 0, i32 3
  store i32 1024, ptr %58, align 8, !tbaa !18
  %59 = getelementptr i8, ptr %12, i64 20
  call void @llvm.memset.p0.i64(ptr align 4 %59, i8 0, i64 4, i1 false)
  %60 = getelementptr inbounds nuw %struct.PyType_Spec, ptr %12, i32 0, i32 4
  %61 = getelementptr inbounds [2 x %struct.PyType_Slot], ptr %11, i64 0, i64 0
  store ptr %61, ptr %60, align 8, !tbaa !19
  %62 = load ptr, ptr %4, align 8, !tbaa !3
  %63 = call ptr @PyType_FromMetaclass(ptr noundef null, ptr noundef %62, ptr noundef %12, ptr noundef null)
  store ptr %63, ptr %3, align 8
  store i32 1, ptr %8, align 4
  call void @llvm.lifetime.end.p0(i64 32, ptr %12) #9
  call void @llvm.lifetime.end.p0(i64 32, ptr %11) #9
  br label %64

64:                                               ; preds = %45, %42
  call void @llvm.lifetime.end.p0(i64 8, ptr %9) #9
  br label %65

65:                                               ; preds = %64, %16
  call void @llvm.lifetime.end.p0(i64 8, ptr %7) #9
  call void @llvm.lifetime.end.p0(i64 8, ptr %6) #9
  %66 = load ptr, ptr %3, align 8
  ret ptr %66
}