; Function Attrs: nounwind uwtable
define internal ptr @create_type_with_token(ptr noundef %0, ptr noundef %1) #0 {
  %3 = alloca ptr, align 8
  %4 = alloca ptr, align 8
  %5 = alloca [2 x %struct.PyType_Slot], align 16
  %6 = alloca %struct.PyType_Spec, align 8
  call void @llvm.lifetime.start.p0(i64 8, ptr nonnull %3) #8
  call void @llvm.lifetime.start.p0(i64 8, ptr nonnull %4) #8
  %7 = call i32 (ptr, ptr, ...) @PyArg_ParseTuple(ptr noundef %1, ptr noundef nonnull @.str.70, ptr noundef nonnull %3, ptr noundef nonnull %4) #8
  %.not = icmp eq i32 %7, 0
  br i1 %.not, label %.thread, label %8

8:                                                ; preds = %2
  %9 = load ptr, ptr %4, align 8, !tbaa !23
  %10 = call ptr @PyLong_AsVoidPtr(ptr noundef %9) #8
  %11 = icmp eq ptr %10, null
  br i1 %11, label %12, label %26

12:                                               ; preds = %8
  %13 = call ptr @PyType_FromMetaclass(ptr noundef null, ptr noundef null, ptr noundef nonnull @create_type_with_token.spec, ptr noundef null) #8
  %.not16 = icmp eq ptr %13, null
  br i1 %.not16, label %.thread, label %14

14:                                               ; preds = %12
  %15 = call ptr @PyType_GetSlot(ptr noundef nonnull %13, i32 noundef 83) #8
  %16 = call ptr @PyErr_Occurred() #8
  %.not17 = icmp eq ptr %16, null
  br i1 %.not17, label %18, label %17

17:                                               ; preds = %14
  call void @__assert_fail(ptr noundef nonnull @.str.72, ptr noundef nonnull @.str.41, i32 noundef 438, ptr noundef nonnull @__PRETTY_FUNCTION__.create_type_with_token) #10
  unreachable

18:                                               ; preds = %14
  %19 = load i32, ptr %13, align 8, !tbaa !8
  %.not.i = icmp sgt i32 %19, -1
  br i1 %.not.i, label %20, label %Py_DECREF.exit

20:                                               ; preds = %18
  %21 = add nsw i32 %19, -1
  store i32 %21, ptr %13, align 8, !tbaa !8
  %22 = icmp eq i32 %21, 0
  br i1 %22, label %23, label %Py_DECREF.exit

23:                                               ; preds = %20
  call void @_Py_Dealloc(ptr noundef nonnull %13) #8
  br label %Py_DECREF.exit

Py_DECREF.exit:                                   ; preds = %18, %20, %23
  %.not18 = icmp eq ptr %15, @create_type_with_token.spec
  br i1 %.not18, label %26, label %24

24:                                               ; preds = %Py_DECREF.exit
  %25 = load ptr, ptr @PyExc_AssertionError, align 8, !tbaa !23
  call void @PyErr_SetString(ptr noundef %25, ptr noundef nonnull @.str.73) #8
  br label %.thread

26:                                               ; preds = %Py_DECREF.exit, %8
  %.09 = phi ptr [ %10, %8 ], [ @create_type_with_token.spec, %Py_DECREF.exit ]
  call void @llvm.lifetime.start.p0(i64 32, ptr nonnull %5) #8
  store i32 83, ptr %5, align 16, !tbaa !30
  %27 = getelementptr inbounds nuw i8, ptr %5, i64 4
  store i32 0, ptr %27, align 4
  %28 = getelementptr inbounds nuw i8, ptr %5, i64 8
  store ptr %.09, ptr %28, align 8, !tbaa !32
  %29 = getelementptr inbounds nuw i8, ptr %5, i64 16
  call void @llvm.memset.p0.i64(ptr noundef nonnull align 16 dereferenceable(16) %29, i8 0, i64 16, i1 false)
  call void @llvm.lifetime.start.p0(i64 32, ptr nonnull %6) #8
  %30 = load ptr, ptr %3, align 8, !tbaa !46
  store ptr %30, ptr %6, align 8, !tbaa !24
  %31 = getelementptr inbounds nuw i8, ptr %6, i64 8
  store i32 0, ptr %31, align 8, !tbaa !26
  %32 = getelementptr inbounds nuw i8, ptr %6, i64 12
  store i32 0, ptr %32, align 4, !tbaa !27
  %33 = getelementptr inbounds nuw i8, ptr %6, i64 16
  store i32 1024, ptr %33, align 8, !tbaa !28
  %34 = getelementptr inbounds nuw i8, ptr %6, i64 20
  store i32 0, ptr %34, align 4
  %35 = getelementptr inbounds nuw i8, ptr %6, i64 24
  store ptr %5, ptr %35, align 8, !tbaa !29
  %36 = call ptr @PyType_FromMetaclass(ptr noundef null, ptr noundef %0, ptr noundef nonnull %6, ptr noundef null) #8
  call void @llvm.lifetime.end.p0(i64 32, ptr nonnull %6) #8
  call void @llvm.lifetime.end.p0(i64 32, ptr nonnull %5) #8
  br label %.thread

.thread:                                          ; preds = %12, %24, %26, %2
  %.0 = phi ptr [ null, %2 ], [ %36, %26 ], [ null, %24 ], [ null, %12 ]
  call void @llvm.lifetime.end.p0(i64 8, ptr nonnull %4) #8
  call void @llvm.lifetime.end.p0(i64 8, ptr nonnull %3) #8
  ret ptr %.0
}